; ModuleID = '31/1609.c'
source_filename = "31/1609.c"
target datalayout = "e-m:e-p270:32:32-p271:32:32-p272:64:64-i64:64-f80:128-n8:16:32:64-S128"
target triple = "x86_64-pc-linux-gnu"

%struct.s = type { [100 x i8], [100 x i8], i8, i32, [100 x i8], [100 x i8], %struct.s* }

@.str = private unnamed_addr constant [3 x i8] c"%s\00", align 1
@k = common dso_local global [1000 x %struct.s] zeroinitializer, align 16
@.str.1 = private unnamed_addr constant [4 x i8] c"end\00", align 1
@.str.2 = private unnamed_addr constant [16 x i8] c" %s %c %d %s %s\00", align 1
@.str.3 = private unnamed_addr constant [19 x i8] c"%s %s %c %d %s %s\0A\00", align 1
@n = common dso_local global i32 0, align 4

; Function Attrs: noinline nounwind uwtable
define dso_local i32 @main(i32 %0, i8** %1) #0 {
  %3 = alloca i32, align 4
  %4 = alloca i32, align 4
  %5 = alloca i8**, align 8
  %6 = alloca i32, align 4
  %7 = alloca %struct.s*, align 8
  %8 = alloca %struct.s*, align 8
  store i32 0, i32* %3, align 4
  store i32 %0, i32* %4, align 4
  store i8** %1, i8*** %5, align 8
  store i32 0, i32* %6, align 4
  br label %9

9:                                                ; preds = %69, %2
  %10 = load i32, i32* %6, align 4
  %11 = sext i32 %10 to i64
  %12 = getelementptr inbounds [1000 x %struct.s], [1000 x %struct.s]* @k, i64 0, i64 %11
  %13 = getelementptr inbounds %struct.s, %struct.s* %12, i32 0, i32 0
  %14 = getelementptr inbounds [100 x i8], [100 x i8]* %13, i64 0, i64 0
  %15 = call i32 (i8*, ...) @__isoc99_scanf(i8* getelementptr inbounds ([3 x i8], [3 x i8]* @.str, i64 0, i64 0), i8* %14)
  %16 = load i32, i32* %6, align 4
  %17 = sext i32 %16 to i64
  %18 = getelementptr inbounds [1000 x %struct.s], [1000 x %struct.s]* @k, i64 0, i64 %17
  %19 = getelementptr inbounds %struct.s, %struct.s* %18, i32 0, i32 0
  %20 = getelementptr inbounds [100 x i8], [100 x i8]* %19, i64 0, i64 0
  %21 = call i32 @strcmp(i8* %20, i8* getelementptr inbounds ([4 x i8], [4 x i8]* @.str.1, i64 0, i64 0)) #3
  %22 = icmp eq i32 %21, 0
  br i1 %22, label %23, label %24

23:                                               ; preds = %9
  br label %72

24:                                               ; preds = %9
  %25 = load i32, i32* %6, align 4
  %26 = sext i32 %25 to i64
  %27 = getelementptr inbounds [1000 x %struct.s], [1000 x %struct.s]* @k, i64 0, i64 %26
  %28 = getelementptr inbounds %struct.s, %struct.s* %27, i32 0, i32 1
  %29 = getelementptr inbounds [100 x i8], [100 x i8]* %28, i64 0, i64 0
  %30 = load i32, i32* %6, align 4
  %31 = sext i32 %30 to i64
  %32 = getelementptr inbounds [1000 x %struct.s], [1000 x %struct.s]* @k, i64 0, i64 %31
  %33 = getelementptr inbounds %struct.s, %struct.s* %32, i32 0, i32 2
  %34 = load i32, i32* %6, align 4
  %35 = sext i32 %34 to i64
  %36 = getelementptr inbounds [1000 x %struct.s], [1000 x %struct.s]* @k, i64 0, i64 %35
  %37 = getelementptr inbounds %struct.s, %struct.s* %36, i32 0, i32 3
  %38 = load i32, i32* %6, align 4
  %39 = sext i32 %38 to i64
  %40 = getelementptr inbounds [1000 x %struct.s], [1000 x %struct.s]* @k, i64 0, i64 %39
  %41 = getelementptr inbounds %struct.s, %struct.s* %40, i32 0, i32 4
  %42 = getelementptr inbounds [100 x i8], [100 x i8]* %41, i64 0, i64 0
  %43 = load i32, i32* %6, align 4
  %44 = sext i32 %43 to i64
  %45 = getelementptr inbounds [1000 x %struct.s], [1000 x %struct.s]* @k, i64 0, i64 %44
  %46 = getelementptr inbounds %struct.s, %struct.s* %45, i32 0, i32 5
  %47 = getelementptr inbounds [100 x i8], [100 x i8]* %46, i64 0, i64 0
  %48 = call i32 (i8*, ...) @__isoc99_scanf(i8* getelementptr inbounds ([16 x i8], [16 x i8]* @.str.2, i64 0, i64 0), i8* %29, i8* %33, i32* %37, i8* %42, i8* %47)
  %49 = load i32, i32* %6, align 4
  %50 = icmp sgt i32 %49, 0
  br i1 %50, label %51, label %60

51:                                               ; preds = %24
  %52 = load i32, i32* %6, align 4
  %53 = sub nsw i32 %52, 1
  %54 = sext i32 %53 to i64
  %55 = getelementptr inbounds [1000 x %struct.s], [1000 x %struct.s]* @k, i64 0, i64 %54
  %56 = load i32, i32* %6, align 4
  %57 = sext i32 %56 to i64
  %58 = getelementptr inbounds [1000 x %struct.s], [1000 x %struct.s]* @k, i64 0, i64 %57
  %59 = getelementptr inbounds %struct.s, %struct.s* %58, i32 0, i32 6
  store %struct.s* %55, %struct.s** %59, align 8
  br label %60

60:                                               ; preds = %51, %24
  %61 = load i32, i32* %6, align 4
  %62 = icmp eq i32 %61, 0
  br i1 %62, label %63, label %68

63:                                               ; preds = %60
  %64 = load i32, i32* %6, align 4
  %65 = sext i32 %64 to i64
  %66 = getelementptr inbounds [1000 x %struct.s], [1000 x %struct.s]* @k, i64 0, i64 %65
  %67 = getelementptr inbounds %struct.s, %struct.s* %66, i32 0, i32 6
  store %struct.s* null, %struct.s** %67, align 8
  br label %68

68:                                               ; preds = %63, %60
  br label %69

69:                                               ; preds = %68
  %70 = load i32, i32* %6, align 4
  %71 = add nsw i32 %70, 1
  store i32 %71, i32* %6, align 4
  br label %9

72:                                               ; preds = %23
  %73 = load i32, i32* %6, align 4
  %74 = sub nsw i32 %73, 1
  %75 = sext i32 %74 to i64
  %76 = getelementptr inbounds [1000 x %struct.s], [1000 x %struct.s]* @k, i64 0, i64 %75
  store %struct.s* %76, %struct.s** %7, align 8
  %77 = load %struct.s*, %struct.s** %7, align 8
  store %struct.s* %77, %struct.s** %8, align 8
  br label %78

78:                                               ; preds = %102, %72
  %79 = load %struct.s*, %struct.s** %8, align 8
  %80 = getelementptr inbounds %struct.s, %struct.s* %79, i32 0, i32 0
  %81 = getelementptr inbounds [100 x i8], [100 x i8]* %80, i64 0, i64 0
  %82 = load %struct.s*, %struct.s** %8, align 8
  %83 = getelementptr inbounds %struct.s, %struct.s* %82, i32 0, i32 1
  %84 = getelementptr inbounds [100 x i8], [100 x i8]* %83, i64 0, i64 0
  %85 = load %struct.s*, %struct.s** %8, align 8
  %86 = getelementptr inbounds %struct.s, %struct.s* %85, i32 0, i32 2
  %87 = load i8, i8* %86, align 8
  %88 = sext i8 %87 to i32
  %89 = load %struct.s*, %struct.s** %8, align 8
  %90 = getelementptr inbounds %struct.s, %struct.s* %89, i32 0, i32 3
  %91 = load i32, i32* %90, align 4
  %92 = load %struct.s*, %struct.s** %8, align 8
  %93 = getelementptr inbounds %struct.s, %struct.s* %92, i32 0, i32 4
  %94 = getelementptr inbounds [100 x i8], [100 x i8]* %93, i64 0, i64 0
  %95 = load %struct.s*, %struct.s** %8, align 8
  %96 = getelementptr inbounds %struct.s, %struct.s* %95, i32 0, i32 5
  %97 = getelementptr inbounds [100 x i8], [100 x i8]* %96, i64 0, i64 0
  %98 = call i32 (i8*, ...) @printf(i8* getelementptr inbounds ([19 x i8], [19 x i8]* @.str.3, i64 0, i64 0), i8* %81, i8* %84, i32 %88, i32 %91, i8* %94, i8* %97)
  %99 = load %struct.s*, %struct.s** %8, align 8
  %100 = getelementptr inbounds %struct.s, %struct.s* %99, i32 0, i32 6
  %101 = load %struct.s*, %struct.s** %100, align 8
  store %struct.s* %101, %struct.s** %8, align 8
  br label %102

102:                                              ; preds = %78
  %103 = load %struct.s*, %struct.s** %8, align 8
  %104 = icmp ne %struct.s* %103, null
  br i1 %104, label %78, label %105

105:                                              ; preds = %102
  ret i32 0
}

declare dso_local i32 @__isoc99_scanf(i8*, ...) #1

; Function Attrs: nounwind readonly
declare dso_local i32 @strcmp(i8*, i8*) #2

declare dso_local i32 @printf(i8*, ...) #1


!llvm.module.flags = !{!0}
!llvm.ident = !{!1}

!0 = !{i32 1, !"wchar_size", i32 4}
!1 = !{!"clang version 10.0.0-4ubuntu1 "}
